target datalayout = "e-m:e-p270:32:32-p271:32:32-p272:64:64-i64:64-i128:128-f80:128-n8:16:32:64-S128"
target triple = "x86_64-pc-linux-gnu"

%class.BigUnsignedInABase = type <{ %class.NumberlikeArray, i16, [6 x i8] }>
%class.NumberlikeArray = type { i32, i32, ptr }
%"class.std::__cxx11::basic_string" = type { %"struct.std::__cxx11::basic_string<char>::_Alloc_hider", i64, %union.anon }
%"struct.std::__cxx11::basic_string<char>::_Alloc_hider" = type { ptr }
%union.anon = type { i64, [8 x i8] }

@_ZTIPKc = external constant ptr
@.str.1 = private unnamed_addr constant [112 x i8] c"BigUnsignedInABase::BigUnsignedInABase(const Digit *, Index, Base): A digit is too large for the specified base\00", align 1
@.str.3 = private unnamed_addr constant [235 x i8] c"BigUnsignedInABase(std::string, Base): The default string conversion routines use the symbol set 0-9, A-Z and therefore support only up to base 36.  You tried a conversion with a base over 36; write your own string conversion routine.\00", align 1
@.str.4 = private unnamed_addr constant [94 x i8] c"BigUnsignedInABase(std::string, Base): Bad symbol in input.  Only 0-9, A-Z, a-z are accepted.\00", align 1

; Function Attrs: mustprogress nounwind uwtable
define available_externally noundef ptr @_ZNKSt7__cxx1112basic_stringIcSt11char_traitsIcESaIcEE7_M_dataEv(ptr noundef nonnull align 8 dereferenceable(32) %0) #2 align 2 {
  %2 = alloca ptr, align 8
  store ptr %0, ptr %2, align 8, !tbaa !42
  %3 = load ptr, ptr %2, align 8
  %4 = getelementptr inbounds nuw %"class.std::__cxx11::basic_string", ptr %3, i32 0, i32 0
  %5 = getelementptr inbounds nuw %"struct.std::__cxx11::basic_string<char>::_Alloc_hider", ptr %4, i32 0, i32 0
  %6 = load ptr, ptr %5, align 8, !tbaa !58
  ret ptr %6
}

; Function Attrs: mustprogress nounwind uwtable
define linkonce_odr void @_ZN15NumberlikeArrayItED2Ev(ptr noundef nonnull align 8 dereferenceable(16) %0) unnamed_addr #2 comdat align 2 {
  %2 = alloca ptr, align 8
  store ptr %0, ptr %2, align 8, !tbaa !25
  %3 = load ptr, ptr %2, align 8
  %4 = getelementptr inbounds nuw %class.NumberlikeArray, ptr %3, i32 0, i32 2
  %5 = load ptr, ptr %4, align 8, !tbaa !22
  %6 = icmp eq ptr %5, null
  br i1 %6, label %8, label %7

7:                                                ; preds = %1
  call void @_ZdaPv(ptr noundef %5) #17
  br label %8

8:                                                ; preds = %7, %1
  ret void
}

; Function Attrs: mustprogress nounwind uwtable
define linkonce_odr void @_ZN18BigUnsignedInABase15zapLeadingZerosEv(ptr noundef nonnull align 8 dereferenceable(18) %0) #2 comdat align 2 {
  %2 = alloca ptr, align 8
  store ptr %0, ptr %2, align 8, !tbaa !6
  %3 = load ptr, ptr %2, align 8
  br label %4

4:                                                ; preds = %21, %1
  %5 = getelementptr inbounds nuw %class.NumberlikeArray, ptr %3, i32 0, i32 1
  %6 = load i32, ptr %5, align 4, !tbaa !28
  %7 = icmp ugt i32 %6, 0
  br i1 %7, label %8, label %19

8:                                                ; preds = %4
  %9 = getelementptr inbounds nuw %class.NumberlikeArray, ptr %3, i32 0, i32 2
  %10 = load ptr, ptr %9, align 8, !tbaa !22
  %11 = getelementptr inbounds nuw %class.NumberlikeArray, ptr %3, i32 0, i32 1
  %12 = load i32, ptr %11, align 4, !tbaa !28
  %13 = sub i32 %12, 1
  %14 = zext i32 %13 to i64
  %15 = getelementptr inbounds nuw i16, ptr %10, i64 %14
  %16 = load i16, ptr %15, align 2, !tbaa !15
  %17 = zext i16 %16 to i32
  %18 = icmp eq i32 %17, 0
  br label %19

19:                                               ; preds = %8, %4
  %20 = phi i1 [ false, %4 ], [ %18, %8 ]
  br i1 %20, label %21, label %25

21:                                               ; preds = %19
  %22 = getelementptr inbounds nuw %class.NumberlikeArray, ptr %3, i32 0, i32 1
  %23 = load i32, ptr %22, align 4, !tbaa !28
  %24 = add i32 %23, -1
  store i32 %24, ptr %22, align 4, !tbaa !28
  br label %4, !llvm.loop !30

25:                                               ; preds = %19
  ret void
}

; Function Attrs: mustprogress nounwind uwtable
define available_externally noundef nonnull align 1 dereferenceable(1) ptr @_ZNKSt7__cxx1112basic_stringIcSt11char_traitsIcESaIcEEixEm(ptr noundef nonnull align 8 dereferenceable(32) %0, i64 noundef %1) #2 align 2 {
  %3 = alloca ptr, align 8
  %4 = alloca i64, align 8
  store ptr %0, ptr %3, align 8, !tbaa !42
  store i64 %1, ptr %4, align 8, !tbaa !50
  %5 = load ptr, ptr %3, align 8
  br label %6

6:                                                ; preds = %2
  br label %7

7:                                                ; preds = %6
  br label %8

8:                                                ; preds = %7
  %9 = call noundef ptr @_ZNKSt7__cxx1112basic_stringIcSt11char_traitsIcESaIcEE7_M_dataEv(ptr noundef nonnull align 8 dereferenceable(32) %5)
  %10 = load i64, ptr %4, align 8, !tbaa !50
  %11 = getelementptr inbounds nuw i8, ptr %9, i64 %10
  ret ptr %11
}

; Function Attrs: mustprogress uwtable
define linkonce_odr void @_ZN15NumberlikeArrayItE8allocateEj(ptr noundef nonnull align 8 dereferenceable(16) %0, i32 noundef %1) #0 comdat align 2 {
  %3 = alloca ptr, align 8
  %4 = alloca i32, align 4
  store ptr %0, ptr %3, align 8, !tbaa !25
  store i32 %1, ptr %4, align 4, !tbaa !13
  %5 = load ptr, ptr %3, align 8
  %6 = load i32, ptr %4, align 4, !tbaa !13
  %7 = getelementptr inbounds nuw %class.NumberlikeArray, ptr %5, i32 0, i32 0
  %8 = load i32, ptr %7, align 8, !tbaa !27
  %9 = icmp ugt i32 %6, %8
  br i1 %9, label %10, label %27

10:                                               ; preds = %2
  %11 = getelementptr inbounds nuw %class.NumberlikeArray, ptr %5, i32 0, i32 2
  %12 = load ptr, ptr %11, align 8, !tbaa !22
  %13 = icmp eq ptr %12, null
  br i1 %13, label %15, label %14

14:                                               ; preds = %10
  call void @_ZdaPv(ptr noundef %12) #17
  br label %15

15:                                               ; preds = %14, %10
  %16 = load i32, ptr %4, align 4, !tbaa !13
  %17 = getelementptr inbounds nuw %class.NumberlikeArray, ptr %5, i32 0, i32 0
  store i32 %16, ptr %17, align 8, !tbaa !27
  %18 = getelementptr inbounds nuw %class.NumberlikeArray, ptr %5, i32 0, i32 0
  %19 = load i32, ptr %18, align 8, !tbaa !27
  %20 = zext i32 %19 to i64
  %21 = call { i64, i1 } @llvm.umul.with.overflow.i64(i64 %20, i64 2)
  %22 = extractvalue { i64, i1 } %21, 1
  %23 = extractvalue { i64, i1 } %21, 0
  %24 = select i1 %22, i64 -1, i64 %23
  %25 = call noalias noundef nonnull ptr @_Znam(i64 noundef %24) #16
  %26 = getelementptr inbounds nuw %class.NumberlikeArray, ptr %5, i32 0, i32 2
  store ptr %25, ptr %26, align 8, !tbaa !22
  br label %27

27:                                               ; preds = %15, %2
  ret void
}

; Function Attrs: mustprogress nounwind uwtable
define available_externally noundef i64 @_ZNKSt7__cxx1112basic_stringIcSt11char_traitsIcESaIcEE6lengthEv(ptr noundef nonnull align 8 dereferenceable(32) %0) #2 align 2 {
  %2 = alloca ptr, align 8
  store ptr %0, ptr %2, align 8, !tbaa !42
  %3 = load ptr, ptr %2, align 8
  %4 = getelementptr inbounds nuw %"class.std::__cxx11::basic_string", ptr %3, i32 0, i32 1
  %5 = load i64, ptr %4, align 8, !tbaa !46
  ret i64 %5
}

; Function Attrs: mustprogress nounwind uwtable
define linkonce_odr void @_ZN15NumberlikeArrayItEC2Ev(ptr noundef nonnull align 8 dereferenceable(16) %0) unnamed_addr #2 comdat align 2 {
  %2 = alloca ptr, align 8
  store ptr %0, ptr %2, align 8, !tbaa !25
  %3 = load ptr, ptr %2, align 8
  %4 = getelementptr inbounds nuw %class.NumberlikeArray, ptr %3, i32 0, i32 0
  store i32 0, ptr %4, align 8, !tbaa !27
  %5 = getelementptr inbounds nuw %class.NumberlikeArray, ptr %3, i32 0, i32 1
  store i32 0, ptr %5, align 4, !tbaa !28
  %6 = getelementptr inbounds nuw %class.NumberlikeArray, ptr %3, i32 0, i32 2
  store ptr null, ptr %6, align 8, !tbaa !22
  ret void
}

; Function Attrs: mustprogress uwtable
define void @_ZN18BigUnsignedInABaseC2ERKNSt7__cxx1112basic_stringIcSt11char_traitsIcESaIcEEEt(ptr noundef nonnull align 8 dereferenceable(18) %0, ptr noundef nonnull align 8 dereferenceable(32) %1, i16 noundef zeroext %2) unnamed_addr #0 align 2 personality ptr @__gxx_personality_v0 {
  %4 = alloca ptr, align 8
  %5 = alloca ptr, align 8
  %6 = alloca i16, align 2
  %7 = alloca ptr, align 8
  %8 = alloca i32, align 4
  %9 = alloca i32, align 4
  %10 = alloca i32, align 4
  %11 = alloca i8, align 1
  store ptr %0, ptr %4, align 8, !tbaa !6
  store ptr %1, ptr %5, align 8, !tbaa !42
  store i16 %2, ptr %6, align 2, !tbaa !15
  %12 = load ptr, ptr %4, align 8
  call void @_ZN15NumberlikeArrayItEC2Ev(ptr noundef nonnull align 8 dereferenceable(16) %12)
  %13 = load i16, ptr %6, align 2, !tbaa !15
  %14 = zext i16 %13 to i32
  %15 = icmp sgt i32 %14, 36
  br i1 %15, label %16, label %22

16:                                               ; preds = %3
  %17 = call ptr @__cxa_allocate_exception(i64 8) #14
  store ptr @.str.3, ptr %17, align 16, !tbaa !20
  invoke void @__cxa_throw(ptr %17, ptr @_ZTIPKc, ptr null) #15
          to label %141 unwind label %18

18:                                               ; preds = %22, %16
  %19 = landingpad { ptr, i32 }
          cleanup
  %20 = extractvalue { ptr, i32 } %19, 0
  store ptr %20, ptr %7, align 8
  %21 = extractvalue { ptr, i32 } %19, 1
  store i32 %21, ptr %8, align 4
  br label %135

22:                                               ; preds = %3
  %23 = load i16, ptr %6, align 2, !tbaa !15
  %24 = getelementptr inbounds nuw %class.BigUnsignedInABase, ptr %12, i32 0, i32 1
  store i16 %23, ptr %24, align 8, !tbaa !17
  %25 = load ptr, ptr %5, align 8, !tbaa !42
  %26 = call noundef i64 @_ZNKSt7__cxx1112basic_stringIcSt11char_traitsIcESaIcEE6lengthEv(ptr noundef nonnull align 8 dereferenceable(32) %25) #14
  %27 = trunc i64 %26 to i32
  %28 = getelementptr inbounds nuw %class.NumberlikeArray, ptr %12, i32 0, i32 1
  store i32 %27, ptr %28, align 4, !tbaa !28
  %29 = getelementptr inbounds nuw %class.NumberlikeArray, ptr %12, i32 0, i32 1
  %30 = load i32, ptr %29, align 4, !tbaa !28
  invoke void @_ZN15NumberlikeArrayItE8allocateEj(ptr noundef nonnull align 8 dereferenceable(16) %12, i32 noundef %30)
          to label %31 unwind label %18

31:                                               ; preds = %22
  call void @llvm.lifetime.start.p0(i64 4, ptr %9) #14
  call void @llvm.lifetime.start.p0(i64 4, ptr %10) #14
  store i32 0, ptr %9, align 4, !tbaa !13
  br label %32

32:                                               ; preds = %125, %31
  %33 = load i32, ptr %9, align 4, !tbaa !13
  %34 = getelementptr inbounds nuw %class.NumberlikeArray, ptr %12, i32 0, i32 1
  %35 = load i32, ptr %34, align 4, !tbaa !28
  %36 = icmp ult i32 %33, %35
  br i1 %36, label %37, label %128

37:                                               ; preds = %32
  %38 = getelementptr inbounds nuw %class.NumberlikeArray, ptr %12, i32 0, i32 1
  %39 = load i32, ptr %38, align 4, !tbaa !28
  %40 = sub i32 %39, 1
  %41 = load i32, ptr %9, align 4, !tbaa !13
  %42 = sub i32 %40, %41
  store i32 %42, ptr %10, align 4, !tbaa !13
  call void @llvm.lifetime.start.p0(i64 1, ptr %11) #14
  %43 = load ptr, ptr %5, align 8, !tbaa !42
  %44 = load i32, ptr %10, align 4, !tbaa !13
  %45 = zext i32 %44 to i64
  %46 = call noundef nonnull align 1 dereferenceable(1) ptr @_ZNKSt7__cxx1112basic_stringIcSt11char_traitsIcESaIcEEixEm(ptr noundef nonnull align 8 dereferenceable(32) %43, i64 noundef %45) #14
  %47 = load i8, ptr %46, align 1, !tbaa !44
  store i8 %47, ptr %11, align 1, !tbaa !44
  %48 = load i8, ptr %11, align 1, !tbaa !44
  %49 = sext i8 %48 to i32
  %50 = icmp sge i32 %49, 48
  br i1 %50, label %51, label %65

51:                                               ; preds = %37
  %52 = load i8, ptr %11, align 1, !tbaa !44
  %53 = sext i8 %52 to i32
  %54 = icmp sle i32 %53, 57
  br i1 %54, label %55, label %65

55:                                               ; preds = %51
  %56 = load i8, ptr %11, align 1, !tbaa !44
  %57 = sext i8 %56 to i32
  %58 = sub nsw i32 %57, 48
  %59 = trunc i32 %58 to i16
  %60 = getelementptr inbounds nuw %class.NumberlikeArray, ptr %12, i32 0, i32 2
  %61 = load ptr, ptr %60, align 8, !tbaa !22
  %62 = load i32, ptr %9, align 4, !tbaa !13
  %63 = zext i32 %62 to i64
  %64 = getelementptr inbounds nuw i16, ptr %61, i64 %63
  store i16 %59, ptr %64, align 2, !tbaa !15
  br label %111

65:                                               ; preds = %51, %37
  %66 = load i8, ptr %11, align 1, !tbaa !44
  %67 = sext i8 %66 to i32
  %68 = icmp sge i32 %67, 65
  br i1 %68, label %69, label %84

69:                                               ; preds = %65
  %70 = load i8, ptr %11, align 1, !tbaa !44
  %71 = sext i8 %70 to i32
  %72 = icmp sle i32 %71, 90
  br i1 %72, label %73, label %84

73:                                               ; preds = %69
  %74 = load i8, ptr %11, align 1, !tbaa !44
  %75 = sext i8 %74 to i32
  %76 = sub nsw i32 %75, 65
  %77 = add nsw i32 %76, 10
  %78 = trunc i32 %77 to i16
  %79 = getelementptr inbounds nuw %class.NumberlikeArray, ptr %12, i32 0, i32 2
  %80 = load ptr, ptr %79, align 8, !tbaa !22
  %81 = load i32, ptr %9, align 4, !tbaa !13
  %82 = zext i32 %81 to i64
  %83 = getelementptr inbounds nuw i16, ptr %80, i64 %82
  store i16 %78, ptr %83, align 2, !tbaa !15
  br label %110

84:                                               ; preds = %69, %65
  %85 = load i8, ptr %11, align 1, !tbaa !44
  %86 = sext i8 %85 to i32
  %87 = icmp sge i32 %86, 97
  br i1 %87, label %88, label %103

88:                                               ; preds = %84
  %89 = load i8, ptr %11, align 1, !tbaa !44
  %90 = sext i8 %89 to i32
  %91 = icmp sle i32 %90, 122
  br i1 %91, label %92, label %103

92:                                               ; preds = %88
  %93 = load i8, ptr %11, align 1, !tbaa !44
  %94 = sext i8 %93 to i32
  %95 = sub nsw i32 %94, 97
  %96 = add nsw i32 %95, 10
  %97 = trunc i32 %96 to i16
  %98 = getelementptr inbounds nuw %class.NumberlikeArray, ptr %12, i32 0, i32 2
  %99 = load ptr, ptr %98, align 8, !tbaa !22
  %100 = load i32, ptr %9, align 4, !tbaa !13
  %101 = zext i32 %100 to i64
  %102 = getelementptr inbounds nuw i16, ptr %99, i64 %101
  store i16 %97, ptr %102, align 2, !tbaa !15
  br label %109

103:                                              ; preds = %88, %84
  %104 = call ptr @__cxa_allocate_exception(i64 8) #14
  store ptr @.str.4, ptr %104, align 16, !tbaa !20
  invoke void @__cxa_throw(ptr %104, ptr @_ZTIPKc, ptr null) #15
          to label %141 unwind label %105

105:                                              ; preds = %122, %103
  %106 = landingpad { ptr, i32 }
          cleanup
  %107 = extractvalue { ptr, i32 } %106, 0
  store ptr %107, ptr %7, align 8
  %108 = extractvalue { ptr, i32 } %106, 1
  store i32 %108, ptr %8, align 4
  call void @llvm.lifetime.end.p0(i64 1, ptr %11) #14
  br label %134

109:                                              ; preds = %92
  br label %110

110:                                              ; preds = %109, %73
  br label %111

111:                                              ; preds = %110, %55
  %112 = getelementptr inbounds nuw %class.NumberlikeArray, ptr %12, i32 0, i32 2
  %113 = load ptr, ptr %112, align 8, !tbaa !22
  %114 = load i32, ptr %9, align 4, !tbaa !13
  %115 = zext i32 %114 to i64
  %116 = getelementptr inbounds nuw i16, ptr %113, i64 %115
  %117 = load i16, ptr %116, align 2, !tbaa !15
  %118 = zext i16 %117 to i32
  %119 = load i16, ptr %6, align 2, !tbaa !15
  %120 = zext i16 %119 to i32
  %121 = icmp sge i32 %118, %120
  br i1 %121, label %122, label %124

122:                                              ; preds = %111
  %123 = call ptr @__cxa_allocate_exception(i64 8) #14
  store ptr @.str.1, ptr %123, align 16, !tbaa !20
  invoke void @__cxa_throw(ptr %123, ptr @_ZTIPKc, ptr null) #15
          to label %141 unwind label %105

124:                                              ; preds = %111
  call void @llvm.lifetime.end.p0(i64 1, ptr %11) #14
  br label %125

125:                                              ; preds = %124
  %126 = load i32, ptr %9, align 4, !tbaa !13
  %127 = add i32 %126, 1
  store i32 %127, ptr %9, align 4, !tbaa !13
  br label %32, !llvm.loop !45

128:                                              ; preds = %32
  invoke void @_ZN18BigUnsignedInABase15zapLeadingZerosEv(ptr noundef nonnull align 8 dereferenceable(18) %12)
          to label %129 unwind label %130

129:                                              ; preds = %128
  call void @llvm.lifetime.end.p0(i64 4, ptr %10) #14
  call void @llvm.lifetime.end.p0(i64 4, ptr %9) #14
  ret void

130:                                              ; preds = %128
  %131 = landingpad { ptr, i32 }
          cleanup
  %132 = extractvalue { ptr, i32 } %131, 0
  store ptr %132, ptr %7, align 8
  %133 = extractvalue { ptr, i32 } %131, 1
  store i32 %133, ptr %8, align 4
  br label %134

134:                                              ; preds = %130, %105
  call void @llvm.lifetime.end.p0(i64 4, ptr %10) #14
  call void @llvm.lifetime.end.p0(i64 4, ptr %9) #14
  br label %135

135:                                              ; preds = %134, %18
  call void @_ZN15NumberlikeArrayItED2Ev(ptr noundef nonnull align 8 dereferenceable(16) %12) #14
  br label %136

136:                                              ; preds = %135
  %137 = load ptr, ptr %7, align 8
  %138 = load i32, ptr %8, align 4
  %139 = insertvalue { ptr, i32 } poison, ptr %137, 0
  %140 = insertvalue { ptr, i32 } %139, i32 %138, 1
  resume { ptr, i32 } %140

141:                                              ; preds = %122, %103, %16
  unreachable
}