; Function Attrs: mustprogress uwtable
define void @_ZN18BigUnsignedInABaseC2ERKNSt7__cxx1112basic_stringIcSt11char_traitsIcESaIcEEEt(ptr noundef nonnull align 8 captures(none) dereferenceable(18) initializes((0, 16)) %0, ptr noundef nonnull readonly align 8 captures(none) dereferenceable(32) %1, i16 noundef zeroext %2) unnamed_addr #0 align 2 personality ptr @__gxx_personality_v0 {
  tail call void @llvm.memset.p0.i64(ptr noundef nonnull align 8 dereferenceable(16) %0, i8 0, i64 16, i1 false)
  %4 = icmp ugt i16 %2, 36
  br i1 %4, label %5, label %9

5:                                                ; preds = %3
  %6 = tail call ptr @__cxa_allocate_exception(i64 8) #11
  store ptr @.str.3, ptr %6, align 16, !tbaa !19
  invoke void @__cxa_throw(ptr nonnull %6, ptr nonnull @_ZTIPKc, ptr null) #12
          to label %52 unwind label %7

7:                                                ; preds = %15, %5
  %8 = landingpad { ptr, i32 }
          cleanup
  br label %47

9:                                                ; preds = %3
  %10 = getelementptr inbounds nuw i8, ptr %0, i64 16
  store i16 %2, ptr %10, align 8, !tbaa !15
  %11 = getelementptr inbounds nuw i8, ptr %1, i64 8
  %12 = load i64, ptr %11, align 8, !tbaa !34
  %13 = trunc i64 %12 to i32
  %14 = getelementptr inbounds nuw i8, ptr %0, i64 4
  store i32 %13, ptr %14, align 4, !tbaa !13
  %.not43 = icmp eq i32 %13, 0
  br i1 %.not43, label %_ZN18BigUnsignedInABase15zapLeadingZerosEv.exit, label %15

15:                                               ; preds = %9
  store i32 %13, ptr %0, align 8, !tbaa !6
  %16 = shl i64 %12, 1
  %17 = and i64 %16, 8589934590
  %18 = invoke noalias noundef nonnull ptr @_Znam(i64 noundef %17) #10
          to label %.lr.ph unwind label %7

.lr.ph:                                           ; preds = %15
  %19 = getelementptr inbounds nuw i8, ptr %0, i64 8
  store ptr %18, ptr %19, align 8, !tbaa !14
  %20 = load ptr, ptr %1, align 8, !tbaa !37
  %wide.trip.count = and i64 %12, 4294967295
  br label %22

21:                                               ; preds = %35
  %indvars.iv.next = add nuw nsw i64 %indvars.iv, 1
  %exitcond.not = icmp eq i64 %indvars.iv.next, %wide.trip.count
  br i1 %exitcond.not, label %.lr.ph.i, label %22, !llvm.loop !38

22:                                               ; preds = %.lr.ph, %21
  %indvars.iv = phi i64 [ 0, %.lr.ph ], [ %indvars.iv.next, %21 ]
  %23 = xor i64 %indvars.iv, -1
  %24 = add i64 %12, %23
  %25 = and i64 %24, 4294967295
  %26 = getelementptr inbounds nuw i8, ptr %20, i64 %25
  %27 = load i8, ptr %26, align 1, !tbaa !39
  %28 = add i8 %27, -48
  %or.cond = icmp ult i8 %28, 10
  br i1 %or.cond, label %35, label %29

29:                                               ; preds = %22
  %30 = add i8 %27, -65
  %or.cond5 = icmp ult i8 %30, 26
  br i1 %or.cond5, label %35, label %31

31:                                               ; preds = %29
  %32 = add i8 %27, -97
  %or.cond8 = icmp ult i8 %32, 26
  br i1 %or.cond8, label %35, label %.invoke

33:                                               ; preds = %.invoke
  %34 = landingpad { ptr, i32 }
          cleanup
  br label %47

35:                                               ; preds = %31, %29, %22
  %.sink49 = phi i16 [ -48, %22 ], [ -55, %29 ], [ -87, %31 ]
  %36 = zext nneg i8 %27 to i16
  %37 = add nsw i16 %.sink49, %36
  %38 = getelementptr inbounds nuw i16, ptr %18, i64 %indvars.iv
  store i16 %37, ptr %38, align 2, !tbaa !18
  %.not = icmp ult i16 %37, %2
  br i1 %.not, label %21, label %.invoke

.invoke:                                          ; preds = %35, %31
  %.str.4.sink = phi ptr [ @.str.4, %31 ], [ @.str.1, %35 ]
  %39 = tail call ptr @__cxa_allocate_exception(i64 8) #11
  store ptr %.str.4.sink, ptr %39, align 16, !tbaa !19
  invoke void @__cxa_throw(ptr nonnull %39, ptr nonnull @_ZTIPKc, ptr null) #12
          to label %.cont unwind label %33

.cont:                                            ; preds = %.invoke
  unreachable

.lr.ph.i:                                         ; preds = %21
  %40 = and i64 %12, 4294967295
  br label %41

41:                                               ; preds = %46, %.lr.ph.i
  %indvars.iv.i = phi i64 [ %40, %.lr.ph.i ], [ %indvars.iv.next.i, %46 ]
  %indvars.iv.next.i = add nsw i64 %indvars.iv.i, -1
  %42 = and i64 %indvars.iv.next.i, 4294967295
  %43 = getelementptr inbounds nuw i16, ptr %18, i64 %42
  %44 = load i16, ptr %43, align 2, !tbaa !18
  %45 = icmp eq i16 %44, 0
  br i1 %45, label %46, label %_ZN18BigUnsignedInABase15zapLeadingZerosEv.exit

46:                                               ; preds = %41
  %indvars.i = trunc i64 %indvars.iv.next.i to i32
  store i32 %indvars.i, ptr %14, align 4, !tbaa !13
  %.not.i = icmp eq i32 %indvars.i, 0
  br i1 %.not.i, label %_ZN18BigUnsignedInABase15zapLeadingZerosEv.exit, label %41, !llvm.loop !23

_ZN18BigUnsignedInABase15zapLeadingZerosEv.exit:  ; preds = %41, %46, %9
  ret void

47:                                               ; preds = %33, %7
  %.pn = phi { ptr, i32 } [ %8, %7 ], [ %34, %33 ]
  %48 = getelementptr inbounds nuw i8, ptr %0, i64 8
  %49 = load ptr, ptr %48, align 8, !tbaa !14
  %50 = icmp eq ptr %49, null
  br i1 %50, label %_ZN15NumberlikeArrayItED2Ev.exit, label %51

51:                                               ; preds = %47
  tail call void @_ZdaPv(ptr noundef nonnull %49) #13
  br label %_ZN15NumberlikeArrayItED2Ev.exit

_ZN15NumberlikeArrayItED2Ev.exit:                 ; preds = %47, %51
  resume { ptr, i32 } %.pn

52:                                               ; preds = %5
  unreachable
}